(dp1
S'output'
p2
S"<type 'exceptions.TypeError'> cannot concatenate 'str' and 'NoneType' objects"
p3
sS'layer'
p4
S'/home/joseph/BabbleBot/applications/BabbleBot/controllers/core.py'
p5
sS'code'
p6
S'<code object <module> at 0x7fd1e14a29b0, file "/home/joseph/BabbleBot/applications/BabbleBot/controllers/core.py", line 2>'
p7
sS'snapshot'
p8
(dp9
sS'traceback'
p10
S'Traceback (most recent call last):\n  File "/home/joseph/BabbleBot/gluon/restricted.py", line 219, in restricted\n    exec(ccode, environment)\n  File "/home/joseph/BabbleBot/applications/BabbleBot/controllers/core.py", line 81, in <module>\n  File "/home/joseph/BabbleBot/gluon/globals.py", line 419, in <lambda>\n    self._caller = lambda f: f()\n  File "/home/joseph/BabbleBot/applications/BabbleBot/controllers/core.py", line 78, in featureList\n    users = groupMe.getListOfUsers(session.myAuth, session.myGroupID)\n  File "applications/BabbleBot/modules/groupMe.py", line 32, in getListOfUsers\n    req = requests.get("https://api.groupme.com/v3/groups/"+groupID+"?token=" + auth)\nTypeError: cannot concatenate \'str\' and \'NoneType\' objects\n'
p11
s.