(dp1
S'output'
p2
S"<class 'simplejson.scanner.JSONDecodeError'> Expecting value: line 1 column 1 (char 0)"
p3
sS'layer'
p4
S'/home/joseph/BabbleBot/applications/BabbleBot/controllers/core.py'
p5
sS'code'
p6
S'<code object <module> at 0x7f3ead80f5b0, file "/home/joseph/BabbleBot/applications/BabbleBot/controllers/core.py", line 2>'
p7
sS'snapshot'
p8
(dp9
sS'traceback'
p10
S'Traceback (most recent call last):\n  File "/home/joseph/BabbleBot/gluon/restricted.py", line 219, in restricted\n    exec(ccode, environment)\n  File "/home/joseph/BabbleBot/applications/BabbleBot/controllers/core.py", line 73, in <module>\n  File "/home/joseph/BabbleBot/gluon/globals.py", line 419, in <lambda>\n    self._caller = lambda f: f()\n  File "/home/joseph/BabbleBot/applications/BabbleBot/controllers/core.py", line 30, in guestCheck\n    groups = groupMe.getAllGroups(personAuth)\n  File "applications/BabbleBot/modules/groupMe.py", line 67, in getAllGroups\n    output = output.json()\n  File "/usr/lib/python2.7/dist-packages/requests/models.py", line 651, in json\n    return json.loads(self.text or self.content, **kwargs)\n  File "/usr/lib64/python2.7/dist-packages/simplejson/__init__.py", line 505, in loads\n    return _default_decoder.decode(s)\n  File "/usr/lib64/python2.7/dist-packages/simplejson/decoder.py", line 370, in decode\n    obj, end = self.raw_decode(s)\n  File "/usr/lib64/python2.7/dist-packages/simplejson/decoder.py", line 400, in raw_decode\n    return self.scan_once(s, idx=_w(s, idx).end())\nJSONDecodeError: Expecting value: line 1 column 1 (char 0)\n'
p11
s.