(dp1
S'output'
p2
S"<type 'exceptions.TypeError'> argument of type 'NoneType' is not iterable"
p3
sS'layer'
p4
S'/home/joseph/BabbleBot/applications/BabbleBot/controllers/features.py'
p5
sS'code'
p6
S'<code object <module> at 0x7f92e158d730, file "/home/joseph/BabbleBot/applications/BabbleBot/controllers/features.py", line 2>'
p7
sS'snapshot'
p8
(dp9
sS'traceback'
p10
S'Traceback (most recent call last):\n  File "/home/joseph/BabbleBot/gluon/restricted.py", line 219, in restricted\n    exec(ccode, environment)\n  File "/home/joseph/BabbleBot/applications/BabbleBot/controllers/features.py", line 17, in <module>\n  File "/home/joseph/BabbleBot/gluon/globals.py", line 419, in <lambda>\n    self._caller = lambda f: f()\n  File "/home/joseph/BabbleBot/applications/BabbleBot/controllers/features.py", line 14, in likesRecievedPerUser\n    userDict = str(groupMeFeatures.getLikesPerUser(session.dictComments, session.translator))\n  File "applications/BabbleBot/modules/groupMeFeatures.py", line 56, in getLikesPerUser\n    if k in translator:\nTypeError: argument of type \'NoneType\' is not iterable\n'
p11
s.