(dp1
S'output'
p2
S"<type 'exceptions.AttributeError'> 'NoneType' object has no attribute 'iteritems'"
p3
sS'layer'
p4
S'/home/tan/babblebot/applications/BabbleBot/controllers/features.py'
p5
sS'code'
p6
S'<code object <module> at 0x7f908c6ce230, file "/home/tan/babblebot/applications/BabbleBot/controllers/features.py", line 3>'
p7
sS'snapshot'
p8
(dp9
sS'traceback'
p10
S'Traceback (most recent call last):\n  File "/home/tan/babblebot/gluon/restricted.py", line 219, in restricted\n    exec(ccode, environment)\n  File "/home/tan/babblebot/applications/BabbleBot/controllers/features.py", line 12, in <module>\n  File "/home/tan/babblebot/gluon/globals.py", line 419, in <lambda>\n    self._caller = lambda f: f()\n  File "/home/tan/babblebot/applications/BabbleBot/controllers/features.py", line 9, in numComments\n    ans = groupMeFeatures.countCommentsPerUser(coms)\n  File "applications/BabbleBot/modules/groupMeFeatures.py", line 8, in countCommentsPerUser\n    for k,val in comments.iteritems():\nAttributeError: \'NoneType\' object has no attribute \'iteritems\'\n'
p11
s.